target datalayout = "e-m:e-p270:32:32-p271:32:32-p272:64:64-i64:64-i128:128-f80:128-n8:16:32:64-S128"
target triple = "x86_64-pc-linux-gnu"

%struct.knl_distances_summary = type { i32, [4 x %struct.knl_distances_value] }
%struct.knl_distances_value = type { i32, i64 }

@.str.397 = private unnamed_addr constant [23 x i8] c"  DDR#0 is NUMAnode#0\0A\00", align 1
@.str.399 = private unnamed_addr constant [27 x i8] c"  MCDRAM#0 is NUMAnode#%u\0A\00", align 1
@.str.400 = private unnamed_addr constant [27 x i8] c"  MCDRAM#1 is NUMAnode#%u\0A\00", align 1
@.str.401 = private unnamed_addr constant [62 x i8] c"Trying to identify 8 KNL NUMA nodes in SNC-4 cluster mode...\0A\00", align 1
@.str.402 = private unnamed_addr constant [25 x i8] c"  DDR#%u is NUMAnode#%u\0A\00", align 1
@.str.403 = private unnamed_addr constant [27 x i8] c"  MCDRAM#2 is NUMAnode#%u\0A\00", align 1
@.str.404 = private unnamed_addr constant [27 x i8] c"  MCDRAM#3 is NUMAnode#%u\0A\00", align 1

; Function Attrs: inlinehint nounwind uwtable
define internal void @hwloc_debug(ptr noundef %0, ...) #1 {
  %2 = alloca ptr, align 8
  store ptr %0, ptr %2, align 8, !tbaa !3
  ret void
}

; Function Attrs: nounwind uwtable
define internal i32 @hwloc_linux_knl_identify_8nodes(ptr noundef %0, ptr noundef %1, ptr noundef %2, ptr noundef %3) #0 {
  %5 = alloca i32, align 4
  %6 = alloca ptr, align 8
  %7 = alloca ptr, align 8
  %8 = alloca ptr, align 8
  %9 = alloca ptr, align 8
  %10 = alloca i64, align 8
  %11 = alloca i32, align 4
  %12 = alloca i32, align 4
  %13 = alloca i32, align 4
  store ptr %0, ptr %6, align 8, !tbaa !14
  store ptr %1, ptr %7, align 8, !tbaa !336
  store ptr %2, ptr %8, align 8, !tbaa !91
  store ptr %3, ptr %9, align 8, !tbaa !91
  call void @llvm.lifetime.start.p0(i64 8, ptr %10) #14
  call void @llvm.lifetime.start.p0(i64 4, ptr %11) #14
  call void @llvm.lifetime.start.p0(i64 4, ptr %12) #14
  call void (ptr, ...) @hwloc_debug(ptr noundef @.str.401)
  %14 = load ptr, ptr %7, align 8, !tbaa !336
  %15 = getelementptr inbounds nuw %struct.knl_distances_summary, ptr %14, i32 0, i32 0
  %16 = load i32, ptr %15, align 8, !tbaa !338
  %17 = icmp ne i32 %16, 4
  br i1 %17, label %46, label %18

18:                                               ; preds = %4
  %19 = load ptr, ptr %7, align 8, !tbaa !336
  %20 = getelementptr inbounds nuw %struct.knl_distances_summary, ptr %19, i32 0, i32 1
  %21 = getelementptr inbounds [4 x %struct.knl_distances_value], ptr %20, i64 0, i64 0
  %22 = getelementptr inbounds nuw %struct.knl_distances_value, ptr %21, i32 0, i32 0
  %23 = load i32, ptr %22, align 8, !tbaa !342
  %24 = icmp ne i32 %23, 4
  br i1 %24, label %46, label %25

25:                                               ; preds = %18
  %26 = load ptr, ptr %7, align 8, !tbaa !336
  %27 = getelementptr inbounds nuw %struct.knl_distances_summary, ptr %26, i32 0, i32 1
  %28 = getelementptr inbounds [4 x %struct.knl_distances_value], ptr %27, i64 0, i64 1
  %29 = getelementptr inbounds nuw %struct.knl_distances_value, ptr %28, i32 0, i32 0
  %30 = load i32, ptr %29, align 8, !tbaa !342
  %31 = icmp ne i32 %30, 6
  br i1 %31, label %46, label %32

32:                                               ; preds = %25
  %33 = load ptr, ptr %7, align 8, !tbaa !336
  %34 = getelementptr inbounds nuw %struct.knl_distances_summary, ptr %33, i32 0, i32 1
  %35 = getelementptr inbounds [4 x %struct.knl_distances_value], ptr %34, i64 0, i64 2
  %36 = getelementptr inbounds nuw %struct.knl_distances_value, ptr %35, i32 0, i32 0
  %37 = load i32, ptr %36, align 8, !tbaa !342
  %38 = icmp ne i32 %37, 8
  br i1 %38, label %46, label %39

39:                                               ; preds = %32
  %40 = load ptr, ptr %7, align 8, !tbaa !336
  %41 = getelementptr inbounds nuw %struct.knl_distances_summary, ptr %40, i32 0, i32 1
  %42 = getelementptr inbounds [4 x %struct.knl_distances_value], ptr %41, i64 0, i64 3
  %43 = getelementptr inbounds nuw %struct.knl_distances_value, ptr %42, i32 0, i32 0
  %44 = load i32, ptr %43, align 8, !tbaa !342
  %45 = icmp ne i32 %44, 18
  br i1 %45, label %46, label %47

46:                                               ; preds = %39, %32, %25, %18, %4
  store i32 -1, ptr %5, align 4
  store i32 1, ptr %13, align 4
  br label %221

47:                                               ; preds = %39
  %48 = load ptr, ptr %8, align 8, !tbaa !91
  %49 = getelementptr inbounds i32, ptr %48, i64 0
  store i32 0, ptr %49, align 4, !tbaa !10
  call void (ptr, ...) @hwloc_debug(ptr noundef @.str.397)
  %50 = load ptr, ptr %7, align 8, !tbaa !336
  %51 = getelementptr inbounds nuw %struct.knl_distances_summary, ptr %50, i32 0, i32 1
  %52 = getelementptr inbounds [4 x %struct.knl_distances_value], ptr %51, i64 0, i64 1
  %53 = getelementptr inbounds nuw %struct.knl_distances_value, ptr %52, i32 0, i32 1
  %54 = load i64, ptr %53, align 8, !tbaa !340
  store i64 %54, ptr %10, align 8, !tbaa !12
  %55 = load ptr, ptr %8, align 8, !tbaa !91
  %56 = getelementptr inbounds i32, ptr %55, i64 3
  store i32 0, ptr %56, align 4, !tbaa !10
  %57 = load ptr, ptr %8, align 8, !tbaa !91
  %58 = getelementptr inbounds i32, ptr %57, i64 2
  store i32 0, ptr %58, align 4, !tbaa !10
  %59 = load ptr, ptr %8, align 8, !tbaa !91
  %60 = getelementptr inbounds i32, ptr %59, i64 1
  store i32 0, ptr %60, align 4, !tbaa !10
  store i32 1, ptr %12, align 4, !tbaa !10
  store i32 0, ptr %11, align 4, !tbaa !10
  br label %61

61:                                               ; preds = %86, %47
  %62 = load i32, ptr %11, align 4, !tbaa !10
  %63 = icmp ult i32 %62, 8
  br i1 %63, label %64, label %89

64:                                               ; preds = %61
  %65 = load ptr, ptr %6, align 8, !tbaa !14
  %66 = load i32, ptr %11, align 4, !tbaa !10
  %67 = zext i32 %66 to i64
  %68 = getelementptr inbounds nuw i64, ptr %65, i64 %67
  %69 = load i64, ptr %68, align 8, !tbaa !12
  %70 = load i64, ptr %10, align 8, !tbaa !12
  %71 = icmp eq i64 %69, %70
  br i1 %71, label %72, label %85

72:                                               ; preds = %64
  %73 = load i32, ptr %12, align 4, !tbaa !10
  %74 = load i32, ptr %11, align 4, !tbaa !10
  call void (ptr, ...) @hwloc_debug(ptr noundef @.str.402, i32 noundef %73, i32 noundef %74)
  %75 = load i32, ptr %11, align 4, !tbaa !10
  %76 = load ptr, ptr %8, align 8, !tbaa !91
  %77 = load i32, ptr %12, align 4, !tbaa !10
  %78 = add i32 %77, 1
  store i32 %78, ptr %12, align 4, !tbaa !10
  %79 = zext i32 %77 to i64
  %80 = getelementptr inbounds nuw i32, ptr %76, i64 %79
  store i32 %75, ptr %80, align 4, !tbaa !10
  %81 = load i32, ptr %12, align 4, !tbaa !10
  %82 = icmp eq i32 %81, 4
  br i1 %82, label %83, label %84

83:                                               ; preds = %72
  br label %89

84:                                               ; preds = %72
  br label %85

85:                                               ; preds = %84, %64
  br label %86

86:                                               ; preds = %85
  %87 = load i32, ptr %11, align 4, !tbaa !10
  %88 = add i32 %87, 1
  store i32 %88, ptr %11, align 4, !tbaa !10
  br label %61, !llvm.loop !351

89:                                               ; preds = %83, %61
  %90 = load i32, ptr %12, align 4, !tbaa !10
  %91 = icmp ne i32 %90, 4
  br i1 %91, label %107, label %92

92:                                               ; preds = %89
  %93 = load ptr, ptr %8, align 8, !tbaa !91
  %94 = getelementptr inbounds i32, ptr %93, i64 1
  %95 = load i32, ptr %94, align 4, !tbaa !10
  %96 = icmp ne i32 %95, 0
  br i1 %96, label %97, label %107

97:                                               ; preds = %92
  %98 = load ptr, ptr %8, align 8, !tbaa !91
  %99 = getelementptr inbounds i32, ptr %98, i64 2
  %100 = load i32, ptr %99, align 4, !tbaa !10
  %101 = icmp ne i32 %100, 0
  br i1 %101, label %102, label %107

102:                                              ; preds = %97
  %103 = load ptr, ptr %8, align 8, !tbaa !91
  %104 = getelementptr inbounds i32, ptr %103, i64 3
  %105 = load i32, ptr %104, align 4, !tbaa !10
  %106 = icmp ne i32 %105, 0
  br i1 %106, label %108, label %107

107:                                              ; preds = %102, %97, %92, %89
  store i32 -1, ptr %5, align 4
  store i32 1, ptr %13, align 4
  br label %221

108:                                              ; preds = %102
  %109 = load ptr, ptr %7, align 8, !tbaa !336
  %110 = getelementptr inbounds nuw %struct.knl_distances_summary, ptr %109, i32 0, i32 1
  %111 = getelementptr inbounds [4 x %struct.knl_distances_value], ptr %110, i64 0, i64 0
  %112 = getelementptr inbounds nuw %struct.knl_distances_value, ptr %111, i32 0, i32 1
  %113 = load i64, ptr %112, align 8, !tbaa !340
  store i64 %113, ptr %10, align 8, !tbaa !12
  %114 = load ptr, ptr %9, align 8, !tbaa !91
  %115 = getelementptr inbounds i32, ptr %114, i64 3
  store i32 0, ptr %115, align 4, !tbaa !10
  %116 = load ptr, ptr %9, align 8, !tbaa !91
  %117 = getelementptr inbounds i32, ptr %116, i64 2
  store i32 0, ptr %117, align 4, !tbaa !10
  %118 = load ptr, ptr %9, align 8, !tbaa !91
  %119 = getelementptr inbounds i32, ptr %118, i64 1
  store i32 0, ptr %119, align 4, !tbaa !10
  %120 = load ptr, ptr %9, align 8, !tbaa !91
  %121 = getelementptr inbounds i32, ptr %120, i64 0
  store i32 0, ptr %121, align 4, !tbaa !10
  store i32 1, ptr %11, align 4, !tbaa !10
  br label %122

122:                                              ; preds = %196, %108
  %123 = load i32, ptr %11, align 4, !tbaa !10
  %124 = icmp ult i32 %123, 8
  br i1 %124, label %125, label %199

125:                                              ; preds = %122
  %126 = load ptr, ptr %6, align 8, !tbaa !14
  %127 = load i32, ptr %11, align 4, !tbaa !10
  %128 = zext i32 %127 to i64
  %129 = getelementptr inbounds nuw i64, ptr %126, i64 %128
  %130 = load i64, ptr %129, align 8, !tbaa !12
  %131 = load i64, ptr %10, align 8, !tbaa !12
  %132 = icmp eq i64 %130, %131
  br i1 %132, label %133, label %138

133:                                              ; preds = %125
  %134 = load i32, ptr %11, align 4, !tbaa !10
  call void (ptr, ...) @hwloc_debug(ptr noundef @.str.399, i32 noundef %134)
  %135 = load i32, ptr %11, align 4, !tbaa !10
  %136 = load ptr, ptr %9, align 8, !tbaa !91
  %137 = getelementptr inbounds i32, ptr %136, i64 0
  store i32 %135, ptr %137, align 4, !tbaa !10
  br label %195

138:                                              ; preds = %125
  %139 = load ptr, ptr %6, align 8, !tbaa !14
  %140 = load ptr, ptr %8, align 8, !tbaa !91
  %141 = getelementptr inbounds i32, ptr %140, i64 1
  %142 = load i32, ptr %141, align 4, !tbaa !10
  %143 = mul i32 %142, 8
  %144 = load i32, ptr %11, align 4, !tbaa !10
  %145 = add i32 %143, %144
  %146 = zext i32 %145 to i64
  %147 = getelementptr inbounds nuw i64, ptr %139, i64 %146
  %148 = load i64, ptr %147, align 8, !tbaa !12
  %149 = load i64, ptr %10, align 8, !tbaa !12
  %150 = icmp eq i64 %148, %149
  br i1 %150, label %151, label %156

151:                                              ; preds = %138
  %152 = load i32, ptr %11, align 4, !tbaa !10
  call void (ptr, ...) @hwloc_debug(ptr noundef @.str.400, i32 noundef %152)
  %153 = load i32, ptr %11, align 4, !tbaa !10
  %154 = load ptr, ptr %9, align 8, !tbaa !91
  %155 = getelementptr inbounds i32, ptr %154, i64 1
  store i32 %153, ptr %155, align 4, !tbaa !10
  br label %194

156:                                              ; preds = %138
  %157 = load ptr, ptr %6, align 8, !tbaa !14
  %158 = load ptr, ptr %8, align 8, !tbaa !91
  %159 = getelementptr inbounds i32, ptr %158, i64 2
  %160 = load i32, ptr %159, align 4, !tbaa !10
  %161 = mul i32 %160, 8
  %162 = load i32, ptr %11, align 4, !tbaa !10
  %163 = add i32 %161, %162
  %164 = zext i32 %163 to i64
  %165 = getelementptr inbounds nuw i64, ptr %157, i64 %164
  %166 = load i64, ptr %165, align 8, !tbaa !12
  %167 = load i64, ptr %10, align 8, !tbaa !12
  %168 = icmp eq i64 %166, %167
  br i1 %168, label %169, label %174

169:                                              ; preds = %156
  %170 = load i32, ptr %11, align 4, !tbaa !10
  call void (ptr, ...) @hwloc_debug(ptr noundef @.str.403, i32 noundef %170)
  %171 = load i32, ptr %11, align 4, !tbaa !10
  %172 = load ptr, ptr %9, align 8, !tbaa !91
  %173 = getelementptr inbounds i32, ptr %172, i64 2
  store i32 %171, ptr %173, align 4, !tbaa !10
  br label %193

174:                                              ; preds = %156
  %175 = load ptr, ptr %6, align 8, !tbaa !14
  %176 = load ptr, ptr %8, align 8, !tbaa !91
  %177 = getelementptr inbounds i32, ptr %176, i64 3
  %178 = load i32, ptr %177, align 4, !tbaa !10
  %179 = mul i32 %178, 8
  %180 = load i32, ptr %11, align 4, !tbaa !10
  %181 = add i32 %179, %180
  %182 = zext i32 %181 to i64
  %183 = getelementptr inbounds nuw i64, ptr %175, i64 %182
  %184 = load i64, ptr %183, align 8, !tbaa !12
  %185 = load i64, ptr %10, align 8, !tbaa !12
  %186 = icmp eq i64 %184, %185
  br i1 %186, label %187, label %192

187:                                              ; preds = %174
  %188 = load i32, ptr %11, align 4, !tbaa !10
  call void (ptr, ...) @hwloc_debug(ptr noundef @.str.404, i32 noundef %188)
  %189 = load i32, ptr %11, align 4, !tbaa !10
  %190 = load ptr, ptr %9, align 8, !tbaa !91
  %191 = getelementptr inbounds i32, ptr %190, i64 3
  store i32 %189, ptr %191, align 4, !tbaa !10
  br label %192

192:                                              ; preds = %187, %174
  br label %193

193:                                              ; preds = %192, %169
  br label %194

194:                                              ; preds = %193, %151
  br label %195

195:                                              ; preds = %194, %133
  br label %196

196:                                              ; preds = %195
  %197 = load i32, ptr %11, align 4, !tbaa !10
  %198 = add i32 %197, 1
  store i32 %198, ptr %11, align 4, !tbaa !10
  br label %122, !llvm.loop !352

199:                                              ; preds = %122
  %200 = load ptr, ptr %9, align 8, !tbaa !91
  %201 = getelementptr inbounds i32, ptr %200, i64 0
  %202 = load i32, ptr %201, align 4, !tbaa !10
  %203 = icmp ne i32 %202, 0
  br i1 %203, label %204, label %219

204:                                              ; preds = %199
  %205 = load ptr, ptr %9, align 8, !tbaa !91
  %206 = getelementptr inbounds i32, ptr %205, i64 1
  %207 = load i32, ptr %206, align 4, !tbaa !10
  %208 = icmp ne i32 %207, 0
  br i1 %208, label %209, label %219

209:                                              ; preds = %204
  %210 = load ptr, ptr %9, align 8, !tbaa !91
  %211 = getelementptr inbounds i32, ptr %210, i64 2
  %212 = load i32, ptr %211, align 4, !tbaa !10
  %213 = icmp ne i32 %212, 0
  br i1 %213, label %214, label %219

214:                                              ; preds = %209
  %215 = load ptr, ptr %9, align 8, !tbaa !91
  %216 = getelementptr inbounds i32, ptr %215, i64 3
  %217 = load i32, ptr %216, align 4, !tbaa !10
  %218 = icmp ne i32 %217, 0
  br i1 %218, label %220, label %219

219:                                              ; preds = %214, %209, %204, %199
  store i32 -1, ptr %5, align 4
  store i32 1, ptr %13, align 4
  br label %221

220:                                              ; preds = %214
  store i32 0, ptr %5, align 4
  store i32 1, ptr %13, align 4
  br label %221

221:                                              ; preds = %220, %219, %107, %46
  call void @llvm.lifetime.end.p0(i64 4, ptr %12) #14
  call void @llvm.lifetime.end.p0(i64 4, ptr %11) #14
  call void @llvm.lifetime.end.p0(i64 8, ptr %10) #14
  %222 = load i32, ptr %5, align 4
  ret i32 %222
}