; Function Attrs: nofree norecurse nosync nounwind memory(argmem: readwrite) uwtable
define internal fastcc range(i32 -1, 1) i32 @hwloc_linux_knl_identify_8nodes(ptr noundef readonly captures(none) %0, ptr noundef nonnull readonly captures(none) %1, ptr noundef nonnull captures(none) %2, ptr noundef nonnull writeonly captures(none) %3) unnamed_addr #22 {
  %5 = load i32, ptr %1, align 8, !tbaa !256
  %.not = icmp eq i32 %5, 4
  br i1 %.not, label %6, label %94

6:                                                ; preds = %4
  %7 = getelementptr inbounds nuw i8, ptr %1, i64 8
  %8 = load i32, ptr %7, align 8, !tbaa !260
  %.not69 = icmp eq i32 %8, 4
  br i1 %.not69, label %9, label %94

9:                                                ; preds = %6
  %10 = getelementptr inbounds nuw i8, ptr %1, i64 24
  %11 = load i32, ptr %10, align 8, !tbaa !260
  %.not70 = icmp eq i32 %11, 6
  br i1 %.not70, label %12, label %94

12:                                               ; preds = %9
  %13 = getelementptr inbounds nuw i8, ptr %1, i64 40
  %14 = load i32, ptr %13, align 8, !tbaa !260
  %.not71 = icmp eq i32 %14, 8
  br i1 %.not71, label %15, label %94

15:                                               ; preds = %12
  %16 = getelementptr inbounds nuw i8, ptr %1, i64 56
  %17 = load i32, ptr %16, align 8, !tbaa !260
  %.not72 = icmp eq i32 %17, 18
  br i1 %.not72, label %18, label %94

18:                                               ; preds = %15
  store i32 0, ptr %2, align 4, !tbaa !3
  %19 = getelementptr inbounds nuw i8, ptr %1, i64 32
  %20 = load i64, ptr %19, align 8, !tbaa !258
  %21 = getelementptr inbounds nuw i8, ptr %2, i64 12
  store i32 0, ptr %21, align 4, !tbaa !3
  %22 = getelementptr inbounds nuw i8, ptr %2, i64 8
  store i32 0, ptr %22, align 4, !tbaa !3
  %23 = getelementptr inbounds nuw i8, ptr %2, i64 4
  store i32 0, ptr %23, align 4, !tbaa !3
  br label %24

24:                                               ; preds = %18, %34
  %indvars.iv = phi i64 [ 0, %18 ], [ %indvars.iv.next, %34 ]
  %.085 = phi i32 [ 1, %18 ], [ %.2, %34 ]
  %25 = getelementptr inbounds nuw i64, ptr %0, i64 %indvars.iv
  %26 = load i64, ptr %25, align 8, !tbaa !10
  %27 = icmp eq i64 %26, %20
  br i1 %27, label %28, label %34

28:                                               ; preds = %24
  %29 = add i32 %.085, 1
  %30 = zext i32 %.085 to i64
  %31 = getelementptr inbounds nuw i32, ptr %2, i64 %30
  %32 = trunc nuw nsw i64 %indvars.iv to i32
  store i32 %32, ptr %31, align 4, !tbaa !3
  %33 = icmp eq i32 %29, 4
  br i1 %33, label %.thread, label %34

34:                                               ; preds = %24, %28
  %.2 = phi i32 [ %29, %28 ], [ %.085, %24 ]
  %indvars.iv.next = add nuw nsw i64 %indvars.iv, 1
  %exitcond.not = icmp eq i64 %indvars.iv.next, 8
  br i1 %exitcond.not, label %35, label %24, !llvm.loop !295

35:                                               ; preds = %34
  %.not73 = icmp eq i32 %.2, 4
  br i1 %.not73, label %.thread, label %94

.thread:                                          ; preds = %28, %35
  %36 = load i32, ptr %23, align 4, !tbaa !3
  %.not74 = icmp eq i32 %36, 0
  br i1 %.not74, label %94, label %37

37:                                               ; preds = %.thread
  %38 = load i32, ptr %22, align 4, !tbaa !3
  %.not75 = icmp eq i32 %38, 0
  br i1 %.not75, label %94, label %39

39:                                               ; preds = %37
  %40 = load i32, ptr %21, align 4, !tbaa !3
  %.not76 = icmp eq i32 %40, 0
  br i1 %.not76, label %94, label %41

41:                                               ; preds = %39
  %42 = getelementptr inbounds nuw i8, ptr %1, i64 16
  %43 = load i64, ptr %42, align 8, !tbaa !258
  %44 = getelementptr inbounds nuw i8, ptr %3, i64 12
  %45 = getelementptr inbounds nuw i8, ptr %3, i64 8
  %46 = getelementptr inbounds nuw i8, ptr %3, i64 4
  tail call void @llvm.memset.p0.i64(ptr noundef nonnull align 4 dereferenceable(16) %3, i8 0, i64 16, i1 false)
  br label %47

47:                                               ; preds = %41, %87
  %48 = phi i32 [ 0, %41 ], [ %88, %87 ]
  %49 = phi i32 [ 0, %41 ], [ %89, %87 ]
  %50 = phi i32 [ 0, %41 ], [ %90, %87 ]
  %51 = phi i32 [ 0, %41 ], [ %91, %87 ]
  %indvars.iv88 = phi i64 [ 1, %41 ], [ %indvars.iv.next89, %87 ]
  %52 = getelementptr inbounds nuw i64, ptr %0, i64 %indvars.iv88
  %53 = load i64, ptr %52, align 8, !tbaa !10
  %54 = icmp eq i64 %53, %43
  br i1 %54, label %55, label %57

55:                                               ; preds = %47
  %56 = trunc nuw nsw i64 %indvars.iv88 to i32
  store i32 %56, ptr %3, align 4, !tbaa !3
  br label %87

57:                                               ; preds = %47
  %58 = load i32, ptr %23, align 4, !tbaa !3
  %59 = shl i32 %58, 3
  %60 = zext i32 %59 to i64
  %61 = getelementptr inbounds nuw i64, ptr %0, i64 %indvars.iv88
  %62 = getelementptr inbounds nuw i64, ptr %61, i64 %60
  %63 = load i64, ptr %62, align 8, !tbaa !10
  %64 = icmp eq i64 %63, %43
  br i1 %64, label %65, label %67

65:                                               ; preds = %57
  %66 = trunc nuw nsw i64 %indvars.iv88 to i32
  store i32 %66, ptr %46, align 4, !tbaa !3
  br label %87

67:                                               ; preds = %57
  %68 = load i32, ptr %22, align 4, !tbaa !3
  %69 = shl i32 %68, 3
  %70 = zext i32 %69 to i64
  %71 = getelementptr inbounds nuw i64, ptr %0, i64 %indvars.iv88
  %72 = getelementptr inbounds nuw i64, ptr %71, i64 %70
  %73 = load i64, ptr %72, align 8, !tbaa !10
  %74 = icmp eq i64 %73, %43
  br i1 %74, label %75, label %77

75:                                               ; preds = %67
  %76 = trunc nuw nsw i64 %indvars.iv88 to i32
  store i32 %76, ptr %45, align 4, !tbaa !3
  br label %87

77:                                               ; preds = %67
  %78 = load i32, ptr %21, align 4, !tbaa !3
  %79 = shl i32 %78, 3
  %80 = zext i32 %79 to i64
  %81 = getelementptr inbounds nuw i64, ptr %0, i64 %indvars.iv88
  %82 = getelementptr inbounds nuw i64, ptr %81, i64 %80
  %83 = load i64, ptr %82, align 8, !tbaa !10
  %84 = icmp eq i64 %83, %43
  br i1 %84, label %85, label %87

85:                                               ; preds = %77
  %86 = trunc nuw nsw i64 %indvars.iv88 to i32
  store i32 %86, ptr %44, align 4, !tbaa !3
  br label %87

87:                                               ; preds = %55, %75, %85, %77, %65
  %88 = phi i32 [ %48, %55 ], [ %48, %75 ], [ %86, %85 ], [ %48, %77 ], [ %48, %65 ]
  %89 = phi i32 [ %49, %55 ], [ %76, %75 ], [ %49, %85 ], [ %49, %77 ], [ %49, %65 ]
  %90 = phi i32 [ %50, %55 ], [ %50, %75 ], [ %50, %85 ], [ %50, %77 ], [ %66, %65 ]
  %91 = phi i32 [ %56, %55 ], [ %51, %75 ], [ %51, %85 ], [ %51, %77 ], [ %51, %65 ]
  %indvars.iv.next89 = add nuw nsw i64 %indvars.iv88, 1
  %exitcond91.not = icmp eq i64 %indvars.iv.next89, 8
  br i1 %exitcond91.not, label %92, label %47, !llvm.loop !296

92:                                               ; preds = %87
  %.not77 = icmp eq i32 %91, 0
  %.not78 = icmp eq i32 %90, 0
  %or.cond = select i1 %.not77, i1 true, i1 %.not78
  %.not79 = icmp eq i32 %89, 0
  %or.cond95 = select i1 %or.cond, i1 true, i1 %.not79
  br i1 %or.cond95, label %94, label %93

93:                                               ; preds = %92
  %.not80 = icmp eq i32 %88, 0
  %spec.select = sext i1 %.not80 to i32
  br label %94

94:                                               ; preds = %93, %92, %35, %.thread, %37, %39, %4, %6, %9, %12, %15
  %.065 = phi i32 [ -1, %15 ], [ -1, %12 ], [ -1, %9 ], [ -1, %6 ], [ -1, %4 ], [ -1, %39 ], [ -1, %37 ], [ -1, %.thread ], [ -1, %35 ], [ -1, %92 ], [ %spec.select, %93 ]
  ret i32 %.065
}